; ModuleID = '60/1941.c'
source_filename = "60/1941.c"
target datalayout = "e-m:e-p270:32:32-p271:32:32-p272:64:64-i64:64-f80:128-n8:16:32:64-S128"
target triple = "x86_64-pc-linux-gnu"

@.str = private unnamed_addr constant [3 x i8] c"%d\00", align 1
@.str.1 = private unnamed_addr constant [7 x i8] c"%d %d\0A\00", align 1
@.str.2 = private unnamed_addr constant [6 x i8] c"empty\00", align 1

; Function Attrs: noinline nounwind uwtable
define dso_local i32 @pa(i32 %0) #0 {
  %2 = alloca i32, align 4
  %3 = alloca i32, align 4
  %4 = alloca i32, align 4
  store i32 %0, i32* %2, align 4
  store i32 1, i32* %3, align 4
  store i32 2, i32* %4, align 4
  br label %5

5:                                                ; preds = %18, %1
  %6 = load i32, i32* %4, align 4
  %7 = load i32, i32* %4, align 4
  %8 = mul nsw i32 %6, %7
  %9 = load i32, i32* %2, align 4
  %10 = icmp sle i32 %8, %9
  br i1 %10, label %11, label %21

11:                                               ; preds = %5
  %12 = load i32, i32* %2, align 4
  %13 = load i32, i32* %4, align 4
  %14 = srem i32 %12, %13
  %15 = icmp eq i32 %14, 0
  br i1 %15, label %16, label %17

16:                                               ; preds = %11
  store i32 0, i32* %3, align 4
  br label %21

17:                                               ; preds = %11
  br label %18

18:                                               ; preds = %17
  %19 = load i32, i32* %4, align 4
  %20 = add nsw i32 %19, 1
  store i32 %20, i32* %4, align 4
  br label %5

21:                                               ; preds = %16, %5
  %22 = load i32, i32* %3, align 4
  ret i32 %22
}

; Function Attrs: noinline nounwind uwtable
define dso_local i32 @main() #0 {
  %1 = alloca i32, align 4
  %2 = alloca i32, align 4
  %3 = alloca i32, align 4
  %4 = alloca i32, align 4
  store i32 0, i32* %1, align 4
  store i32 1, i32* %3, align 4
  %5 = call i32 (i8*, ...) @__isoc99_scanf(i8* getelementptr inbounds ([3 x i8], [3 x i8]* @.str, i64 0, i64 0), i32* %2)
  store i32 1, i32* %4, align 4
  br label %6

6:                                                ; preds = %34, %0
  %7 = load i32, i32* %4, align 4
  %8 = mul nsw i32 2, %7
  %9 = add nsw i32 %8, 3
  %10 = load i32, i32* %2, align 4
  %11 = icmp sle i32 %9, %10
  br i1 %11, label %12, label %37

12:                                               ; preds = %6
  %13 = load i32, i32* %4, align 4
  %14 = mul nsw i32 2, %13
  %15 = add nsw i32 %14, 1
  %16 = call i32 @pa(i32 %15)
  %17 = icmp ne i32 %16, 0
  br i1 %17, label %18, label %33

18:                                               ; preds = %12
  %19 = load i32, i32* %4, align 4
  %20 = mul nsw i32 2, %19
  %21 = add nsw i32 %20, 3
  %22 = call i32 @pa(i32 %21)
  %23 = icmp ne i32 %22, 0
  br i1 %23, label %24, label %32

24:                                               ; preds = %18
  store i32 0, i32* %3, align 4
  %25 = load i32, i32* %4, align 4
  %26 = mul nsw i32 2, %25
  %27 = add nsw i32 %26, 1
  %28 = load i32, i32* %4, align 4
  %29 = mul nsw i32 2, %28
  %30 = add nsw i32 %29, 3
  %31 = call i32 (i8*, ...) @printf(i8* getelementptr inbounds ([7 x i8], [7 x i8]* @.str.1, i64 0, i64 0), i32 %27, i32 %30)
  br label %32

32:                                               ; preds = %24, %18
  br label %33

33:                                               ; preds = %32, %12
  br label %34

34:                                               ; preds = %33
  %35 = load i32, i32* %4, align 4
  %36 = add nsw i32 %35, 1
  store i32 %36, i32* %4, align 4
  br label %6

37:                                               ; preds = %6
  %38 = load i32, i32* %3, align 4
  %39 = icmp ne i32 %38, 0
  br i1 %39, label %40, label %42

40:                                               ; preds = %37
  %41 = call i32 (i8*, ...) @printf(i8* getelementptr inbounds ([6 x i8], [6 x i8]* @.str.2, i64 0, i64 0))
  br label %42

42:                                               ; preds = %40, %37
  %43 = load i32, i32* %1, align 4
  ret i32 %43
}

declare dso_local i32 @__isoc99_scanf(i8*, ...) #1

declare dso_local i32 @printf(i8*, ...) #1


!llvm.module.flags = !{!0}
!llvm.ident = !{!1}

!0 = !{i32 1, !"wchar_size", i32 4}
!1 = !{!"clang version 10.0.0-4ubuntu1 "}
