; ModuleID = 'source-C-CXX/59/1941.c'
source_filename = "source-C-CXX/59/1941.c"
target datalayout = "e-m:e-p270:32:32-p271:32:32-p272:64:64-i64:64-f80:128-n8:16:32:64-S128"
target triple = "x86_64-pc-linux-gnu"

@.str = private unnamed_addr constant [3 x i8] c"%d\00", align 1
@.str.1 = private unnamed_addr constant [7 x i8] c"%d %d\0A\00", align 1
@.str.2 = private unnamed_addr constant [6 x i8] c"empty\00", align 1

; Function Attrs: nofree norecurse nosync nounwind readnone sspstrong uwtable
define dso_local i32 @pa(i32 %0) local_unnamed_addr #0 {
  %2 = icmp slt i32 %0, 4
  br i1 %2, label %11, label %6

3:                                                ; preds = %6
  %4 = mul nsw i32 %10, %10
  %5 = icmp sgt i32 %4, %0
  br i1 %5, label %11, label %6, !llvm.loop !5

6:                                                ; preds = %1, %3
  %7 = phi i32 [ %10, %3 ], [ 2, %1 ]
  %8 = srem i32 %0, %7
  %9 = icmp eq i32 %8, 0
  %10 = add nuw nsw i32 %7, 1
  br i1 %9, label %11, label %3

11:                                               ; preds = %3, %6, %1
  %12 = phi i32 [ 1, %1 ], [ 0, %6 ], [ 1, %3 ]
  ret i32 %12
}

; Function Attrs: argmemonly mustprogress nofree nosync nounwind willreturn
declare void @llvm.lifetime.start.p0i8(i64 immarg, i8* nocapture) #1

; Function Attrs: argmemonly mustprogress nofree nosync nounwind willreturn
declare void @llvm.lifetime.end.p0i8(i64 immarg, i8* nocapture) #1

; Function Attrs: nofree nounwind sspstrong uwtable
define dso_local i32 @main() local_unnamed_addr #2 {
  %1 = alloca i32, align 4
  %2 = bitcast i32* %1 to i8*
  call void @llvm.lifetime.start.p0i8(i64 4, i8* nonnull %2) #4
  %3 = call i32 (i8*, ...) @__isoc99_scanf(i8* getelementptr inbounds ([3 x i8], [3 x i8]* @.str, i64 0, i64 0), i32* nonnull %1)
  %4 = load i32, i32* %1, align 4, !tbaa !7
  %5 = icmp slt i32 %4, 5
  br i1 %5, label %43, label %8

6:                                                ; preds = %36
  %7 = icmp eq i32 %38, 0
  br i1 %7, label %45, label %43

8:                                                ; preds = %0, %36
  %9 = phi i32 [ %37, %36 ], [ %4, %0 ]
  %10 = phi i32 [ %41, %36 ], [ 5, %0 ]
  %11 = phi i32 [ %40, %36 ], [ 2, %0 ]
  %12 = phi i32 [ %39, %36 ], [ 1, %0 ]
  %13 = phi i32 [ %38, %36 ], [ 1, %0 ]
  %14 = or i32 %11, 1
  %15 = icmp ult i32 %14, 4
  br i1 %15, label %16, label %20

16:                                               ; preds = %17, %8
  br label %28

17:                                               ; preds = %20
  %18 = mul nsw i32 %24, %24
  %19 = icmp ugt i32 %18, %14
  br i1 %19, label %16, label %20, !llvm.loop !5

20:                                               ; preds = %8, %17
  %21 = phi i32 [ %24, %17 ], [ 2, %8 ]
  %22 = urem i32 %14, %21
  %23 = icmp eq i32 %22, 0
  %24 = add nuw nsw i32 %21, 1
  br i1 %23, label %36, label %17

25:                                               ; preds = %28
  %26 = mul nsw i32 %32, %32
  %27 = icmp ugt i32 %26, %10
  br i1 %27, label %33, label %28, !llvm.loop !5

28:                                               ; preds = %16, %25
  %29 = phi i32 [ %32, %25 ], [ 2, %16 ]
  %30 = urem i32 %10, %29
  %31 = icmp eq i32 %30, 0
  %32 = add nuw nsw i32 %29, 1
  br i1 %31, label %36, label %25

33:                                               ; preds = %25
  %34 = call i32 (i8*, ...) @printf(i8* nonnull dereferenceable(1) getelementptr inbounds ([7 x i8], [7 x i8]* @.str.1, i64 0, i64 0), i32 %14, i32 %10)
  %35 = load i32, i32* %1, align 4, !tbaa !7
  br label %36

36:                                               ; preds = %20, %28, %33
  %37 = phi i32 [ %35, %33 ], [ %9, %28 ], [ %9, %20 ]
  %38 = phi i32 [ 0, %33 ], [ %13, %28 ], [ %13, %20 ]
  %39 = add nuw nsw i32 %12, 1
  %40 = shl nuw nsw i32 %39, 1
  %41 = add nuw nsw i32 %40, 3
  %42 = icmp sgt i32 %41, %37
  br i1 %42, label %6, label %8, !llvm.loop !11

43:                                               ; preds = %0, %6
  %44 = call i32 (i8*, ...) @printf(i8* nonnull dereferenceable(1) getelementptr inbounds ([6 x i8], [6 x i8]* @.str.2, i64 0, i64 0))
  br label %45

45:                                               ; preds = %43, %6
  call void @llvm.lifetime.end.p0i8(i64 4, i8* nonnull %2) #4
  ret i32 0
}

; Function Attrs: nofree nounwind
declare noundef i32 @__isoc99_scanf(i8* nocapture noundef readonly, ...) local_unnamed_addr #3

; Function Attrs: nofree nounwind
declare noundef i32 @printf(i8* nocapture noundef readonly, ...) local_unnamed_addr #3


!llvm.module.flags = !{!0, !1, !2, !3}
!llvm.ident = !{!4}

!0 = !{i32 1, !"wchar_size", i32 4}
!1 = !{i32 7, !"PIC Level", i32 2}
!2 = !{i32 7, !"PIE Level", i32 2}
!3 = !{i32 7, !"uwtable", i32 1}
!4 = !{!"clang version 13.0.0"}
!5 = distinct !{!5, !6}
!6 = !{!"llvm.loop.mustprogress"}
!7 = !{!8, !8, i64 0}
!8 = !{!"int", !9, i64 0}
!9 = !{!"omnipotent char", !10, i64 0}
!10 = !{!"Simple C/C++ TBAA"}
!11 = distinct !{!11, !6}
